target datalayout = "e-m:e-p270:32:32-p271:32:32-p272:64:64-i64:64-i128:128-f80:128-n8:16:32:64-S128"
target triple = "x86_64-pc-linux-gnu"

@.str = private unnamed_addr constant [2 x i8] c"r\00", align 1
@.str.1 = private unnamed_addr constant [31 x i8] c"../openssl/crypto/ts/ts_conf.c\00", align 1
@__func__.TS_CONF_load_cert = private unnamed_addr constant [18 x i8] c"TS_CONF_load_cert\00", align 1

; Function Attrs: nounwind uwtable
define ptr @TS_CONF_load_cert(ptr noundef %0) #0 {
  %2 = alloca ptr, align 8
  %3 = alloca ptr, align 8
  %4 = alloca ptr, align 8
  store ptr %0, ptr %2, align 8, !tbaa !3
  call void @llvm.lifetime.start.p0(i64 8, ptr %3) #7
  store ptr null, ptr %3, align 8, !tbaa !8
  call void @llvm.lifetime.start.p0(i64 8, ptr %4) #7
  store ptr null, ptr %4, align 8, !tbaa !10
  %5 = load ptr, ptr %2, align 8, !tbaa !3
  %6 = call ptr @BIO_new_file(ptr noundef %5, ptr noundef @.str)
  store ptr %6, ptr %3, align 8, !tbaa !8
  %7 = icmp eq ptr %6, null
  br i1 %7, label %8, label %9

8:                                                ; preds = %1
  br label %12

9:                                                ; preds = %1
  %10 = load ptr, ptr %3, align 8, !tbaa !8
  %11 = call ptr @PEM_read_bio_X509_AUX(ptr noundef %10, ptr noundef null, ptr noundef null, ptr noundef null)
  store ptr %11, ptr %4, align 8, !tbaa !10
  br label %12

12:                                               ; preds = %9, %8
  %13 = load ptr, ptr %4, align 8, !tbaa !10
  %14 = icmp eq ptr %13, null
  br i1 %14, label %15, label %16

15:                                               ; preds = %12
  call void @ERR_new()
  call void @ERR_set_debug(ptr noundef @.str.1, i32 noundef 62, ptr noundef @__func__.TS_CONF_load_cert)
  call void (i32, i32, ptr, ...) @ERR_set_error(i32 noundef 47, i32 noundef 137, ptr noundef null)
  br label %16

16:                                               ; preds = %15, %12
  %17 = load ptr, ptr %3, align 8, !tbaa !8
  %18 = call i32 @BIO_free(ptr noundef %17)
  %19 = load ptr, ptr %4, align 8, !tbaa !10
  call void @llvm.lifetime.end.p0(i64 8, ptr %4) #7
  call void @llvm.lifetime.end.p0(i64 8, ptr %3) #7
  ret ptr %19
}