; Function Attrs: nounwind uwtable
define ptr @TS_CONF_load_cert(ptr noundef %0) local_unnamed_addr #0 {
  %2 = tail call ptr @BIO_new_file(ptr noundef %0, ptr noundef nonnull @.str) #4
  %3 = icmp eq ptr %2, null
  br i1 %3, label %.thread, label %4

4:                                                ; preds = %1
  %5 = tail call ptr @PEM_read_bio_X509_AUX(ptr noundef nonnull %2, ptr noundef null, ptr noundef null, ptr noundef null) #4
  %6 = icmp eq ptr %5, null
  br i1 %6, label %.thread, label %7

.thread:                                          ; preds = %1, %4
  tail call void @ERR_new() #4
  tail call void @ERR_set_debug(ptr noundef nonnull @.str.1, i32 noundef 62, ptr noundef nonnull @__func__.TS_CONF_load_cert) #4
  tail call void (i32, i32, ptr, ...) @ERR_set_error(i32 noundef 47, i32 noundef 137, ptr noundef null) #4
  br label %7

7:                                                ; preds = %.thread, %4
  %.07 = phi ptr [ null, %.thread ], [ %5, %4 ]
  %8 = tail call i32 @BIO_free(ptr noundef %2) #4
  ret ptr %.07
}